; ModuleID = '22/692.c'
source_filename = "22/692.c"
target datalayout = "e-m:e-p270:32:32-p271:32:32-p272:64:64-i64:64-f80:128-n8:16:32:64-S128"
target triple = "x86_64-pc-linux-gnu"

@.str = private unnamed_addr constant [3 x i8] c"%d\00", align 1
@.str.1 = private unnamed_addr constant [3 x i8] c"%c\00", align 1
@.str.2 = private unnamed_addr constant [3 x i8] c"No\00", align 1

; Function Attrs: noinline nounwind uwtable
define dso_local i32 @main() #0 {
  %1 = alloca i32, align 4
  %2 = alloca i32, align 4
  %3 = alloca i32, align 4
  %4 = alloca i32, align 4
  %5 = alloca i8, align 1
  store i32 0, i32* %1, align 4
  store i32 0, i32* %3, align 4
  store i32 0, i32* %4, align 4
  br label %6

6:                                                ; preds = %29, %0
  %7 = call i32 (i8*, ...) @__isoc99_scanf(i8* getelementptr inbounds ([3 x i8], [3 x i8]* @.str, i64 0, i64 0), i32* %2)
  %8 = call i32 (i8*, ...) @__isoc99_scanf(i8* getelementptr inbounds ([3 x i8], [3 x i8]* @.str.1, i64 0, i64 0), i8* %5)
  %9 = load i32, i32* %2, align 4
  %10 = load i32, i32* %3, align 4
  %11 = icmp sgt i32 %9, %10
  br i1 %11, label %12, label %15

12:                                               ; preds = %6
  %13 = load i32, i32* %3, align 4
  store i32 %13, i32* %4, align 4
  %14 = load i32, i32* %2, align 4
  store i32 %14, i32* %3, align 4
  br label %28

15:                                               ; preds = %6
  %16 = load i32, i32* %2, align 4
  %17 = load i32, i32* %3, align 4
  %18 = icmp eq i32 %16, %17
  br i1 %18, label %19, label %20

19:                                               ; preds = %15
  br label %27

20:                                               ; preds = %15
  %21 = load i32, i32* %2, align 4
  %22 = load i32, i32* %4, align 4
  %23 = icmp sge i32 %21, %22
  br i1 %23, label %24, label %26

24:                                               ; preds = %20
  %25 = load i32, i32* %2, align 4
  store i32 %25, i32* %4, align 4
  br label %26

26:                                               ; preds = %24, %20
  br label %27

27:                                               ; preds = %26, %19
  br label %28

28:                                               ; preds = %27, %12
  br label %29

29:                                               ; preds = %28
  %30 = load i8, i8* %5, align 1
  %31 = sext i8 %30 to i32
  %32 = icmp eq i32 %31, 44
  br i1 %32, label %6, label %33

33:                                               ; preds = %29
  %34 = load i32, i32* %3, align 4
  %35 = load i32, i32* %4, align 4
  %36 = icmp eq i32 %34, %35
  br i1 %36, label %37, label %39

37:                                               ; preds = %33
  %38 = call i32 (i8*, ...) @printf(i8* getelementptr inbounds ([3 x i8], [3 x i8]* @.str.2, i64 0, i64 0))
  br label %48

39:                                               ; preds = %33
  %40 = load i32, i32* %4, align 4
  %41 = icmp eq i32 %40, 0
  br i1 %41, label %42, label %44

42:                                               ; preds = %39
  %43 = call i32 (i8*, ...) @printf(i8* getelementptr inbounds ([3 x i8], [3 x i8]* @.str.2, i64 0, i64 0))
  br label %47

44:                                               ; preds = %39
  %45 = load i32, i32* %4, align 4
  %46 = call i32 (i8*, ...) @printf(i8* getelementptr inbounds ([3 x i8], [3 x i8]* @.str, i64 0, i64 0), i32 %45)
  br label %47

47:                                               ; preds = %44, %42
  br label %48

48:                                               ; preds = %47, %37
  ret i32 0
}

declare dso_local i32 @__isoc99_scanf(i8*, ...) #1

declare dso_local i32 @printf(i8*, ...) #1


!llvm.module.flags = !{!0}
!llvm.ident = !{!1}

!0 = !{i32 1, !"wchar_size", i32 4}
!1 = !{!"clang version 10.0.0-4ubuntu1 "}
